target datalayout = "e-m:e-p270:32:32-p271:32:32-p272:64:64-i64:64-i128:128-f80:128-n8:16:32:64-S128"
target triple = "x86_64-pc-linux-gnu"

@.str.29 = private unnamed_addr constant [20 x i8] c"#EXT-X-MAP:URI=\22%s\22\00", align 1
@.str.30 = private unnamed_addr constant [21 x i8] c",BYTERANGE=\22%ld@%ld\22\00", align 1
@.str.31 = private unnamed_addr constant [2 x i8] c"\0A\00", align 1

; Function Attrs: nounwind uwtable
define void @ff_hls_write_init_file(ptr noundef %0, ptr noundef %1, i32 noundef %2, i64 noundef %3, i64 noundef %4) #0 {
  %6 = alloca ptr, align 8
  %7 = alloca ptr, align 8
  %8 = alloca i32, align 4
  %9 = alloca i64, align 8
  %10 = alloca i64, align 8
  store ptr %0, ptr %6, align 8, !tbaa !4
  store ptr %1, ptr %7, align 8, !tbaa !11
  store i32 %2, ptr %8, align 4, !tbaa !9
  store i64 %3, ptr %9, align 8, !tbaa !30
  store i64 %4, ptr %10, align 8, !tbaa !30
  %11 = load ptr, ptr %6, align 8, !tbaa !4
  %12 = load ptr, ptr %7, align 8, !tbaa !11
  %13 = call i32 (ptr, ptr, ...) @avio_printf(ptr noundef %11, ptr noundef @.str.29, ptr noundef %12)
  %14 = load i32, ptr %8, align 4, !tbaa !9
  %15 = icmp ne i32 %14, 0
  br i1 %15, label %16, label %21

16:                                               ; preds = %5
  %17 = load ptr, ptr %6, align 8, !tbaa !4
  %18 = load i64, ptr %9, align 8, !tbaa !30
  %19 = load i64, ptr %10, align 8, !tbaa !30
  %20 = call i32 (ptr, ptr, ...) @avio_printf(ptr noundef %17, ptr noundef @.str.30, i64 noundef %18, i64 noundef %19)
  br label %21

21:                                               ; preds = %16, %5
  %22 = load ptr, ptr %6, align 8, !tbaa !4
  %23 = call i32 (ptr, ptr, ...) @avio_printf(ptr noundef %22, ptr noundef @.str.31)
  ret void
}