; Function Attrs: nounwind uwtable
define void @ff_hls_write_init_file(ptr noundef %0, ptr noundef %1, i32 noundef %2, i64 noundef %3, i64 noundef %4) local_unnamed_addr #0 {
  %6 = tail call i32 (ptr, ptr, ...) @avio_printf(ptr noundef %0, ptr noundef nonnull @.str.29, ptr noundef %1) #8
  %.not = icmp eq i32 %2, 0
  br i1 %.not, label %9, label %7

7:                                                ; preds = %5
  %8 = tail call i32 (ptr, ptr, ...) @avio_printf(ptr noundef %0, ptr noundef nonnull @.str.30, i64 noundef %3, i64 noundef %4) #8
  br label %9

9:                                                ; preds = %7, %5
  %10 = tail call i32 (ptr, ptr, ...) @avio_printf(ptr noundef %0, ptr noundef nonnull @.str.31) #8
  ret void
}